; Function Attrs: mustprogress uwtable
define hidden void @_ZN4cvc58internal6theory5arith6linear18ArithStaticLearnerC2ERNS0_3EnvE(ptr noundef nonnull align 8 dereferenceable(264) %0, ptr noundef nonnull align 8 dereferenceable(696) %1) unnamed_addr #3 align 2 personality ptr @__gxx_personality_v0 {
  tail call void @_ZN4cvc58internal6EnvObjC2ERNS0_3EnvE(ptr noundef nonnull align 8 dereferenceable(16) %0, ptr noundef nonnull align 8 dereferenceable(696) %1)
  %3 = getelementptr inbounds nuw i8, ptr %0, i64 16
  tail call void @_ZN4cvc58internal14ProofGeneratorC2Ev(ptr noundef nonnull align 8 dereferenceable(8) %3)
  store ptr getelementptr inbounds nuw inrange(-16, 32) (i8, ptr @_ZTVN4cvc58internal6theory5arith6linear18ArithStaticLearnerE, i64 16), ptr %0, align 8, !tbaa !3
  store ptr getelementptr inbounds nuw inrange(-16, 48) (i8, ptr @_ZTVN4cvc58internal6theory5arith6linear18ArithStaticLearnerE, i64 64), ptr %3, align 8, !tbaa !3
  %4 = getelementptr inbounds nuw i8, ptr %0, i64 24
  %5 = invoke noundef ptr @_ZNK4cvc58internal6EnvObj11userContextEv(ptr noundef nonnull align 8 dereferenceable(16) %0)
          to label %6 unwind label %30

6:                                                ; preds = %2
  invoke void @_ZN4cvc57context10ContextObjC2EPNS0_7ContextE(ptr noundef nonnull align 8 dereferenceable(112) %4, ptr noundef %5)
          to label %7 unwind label %30

7:                                                ; preds = %6
  store ptr getelementptr inbounds nuw inrange(-16, 32) (i8, ptr @_ZTVN4cvc57context9CDHashMapINS_8internal12NodeTemplateILb1EEENS2_13DeltaRationalESt4hashIS4_EEE, i64 16), ptr %4, align 8, !tbaa !3
  %8 = getelementptr inbounds nuw i8, ptr %0, i64 64
  %9 = getelementptr inbounds nuw i8, ptr %0, i64 96
  store i64 0, ptr %9, align 8
  %10 = getelementptr inbounds nuw i8, ptr %0, i64 112
  store ptr %10, ptr %8, align 8, !tbaa !6
  %11 = getelementptr inbounds nuw i8, ptr %0, i64 72
  store i64 1, ptr %11, align 8, !tbaa !16
  %12 = getelementptr inbounds nuw i8, ptr %0, i64 80
  tail call void @llvm.memset.p0.i64(ptr noundef nonnull align 8 dereferenceable(16) %12, i8 0, i64 16, i1 false)
  store float 1.000000e+00, ptr %9, align 8, !tbaa !17
  %13 = getelementptr inbounds nuw i8, ptr %0, i64 104
  %14 = getelementptr inbounds nuw i8, ptr %0, i64 128
  tail call void @llvm.memset.p0.i64(ptr noundef nonnull align 8 dereferenceable(24) %13, i8 0, i64 24, i1 false)
  store ptr %5, ptr %14, align 8, !tbaa !18
  %15 = getelementptr inbounds nuw i8, ptr %0, i64 136
  %16 = invoke noundef ptr @_ZNK4cvc58internal6EnvObj11userContextEv(ptr noundef nonnull align 8 dereferenceable(16) %0)
          to label %17 unwind label %32

17:                                               ; preds = %7
  invoke void @_ZN4cvc57context10ContextObjC2EPNS0_7ContextE(ptr noundef nonnull align 8 dereferenceable(112) %15, ptr noundef %16)
          to label %18 unwind label %32

18:                                               ; preds = %17
  store ptr getelementptr inbounds nuw inrange(-16, 32) (i8, ptr @_ZTVN4cvc57context9CDHashMapINS_8internal12NodeTemplateILb1EEENS2_13DeltaRationalESt4hashIS4_EEE, i64 16), ptr %15, align 8, !tbaa !3
  %19 = getelementptr inbounds nuw i8, ptr %0, i64 176
  %20 = getelementptr inbounds nuw i8, ptr %0, i64 208
  store i64 0, ptr %20, align 8
  %21 = getelementptr inbounds nuw i8, ptr %0, i64 224
  store ptr %21, ptr %19, align 8, !tbaa !6
  %22 = getelementptr inbounds nuw i8, ptr %0, i64 184
  store i64 1, ptr %22, align 8, !tbaa !16
  %23 = getelementptr inbounds nuw i8, ptr %0, i64 192
  tail call void @llvm.memset.p0.i64(ptr noundef nonnull align 8 dereferenceable(16) %23, i8 0, i64 16, i1 false)
  store float 1.000000e+00, ptr %20, align 8, !tbaa !17
  %24 = getelementptr inbounds nuw i8, ptr %0, i64 216
  %25 = getelementptr inbounds nuw i8, ptr %0, i64 240
  tail call void @llvm.memset.p0.i64(ptr noundef nonnull align 8 dereferenceable(24) %24, i8 0, i64 24, i1 false)
  store ptr %16, ptr %25, align 8, !tbaa !18
  %26 = invoke noundef nonnull align 8 dereferenceable(58) ptr @_ZNK4cvc58internal6EnvObj18statisticsRegistryEv(ptr noundef nonnull align 8 dereferenceable(16) %0)
          to label %27 unwind label %34

27:                                               ; preds = %18
  %28 = getelementptr inbounds nuw i8, ptr %0, i64 248
  invoke void @_ZN4cvc58internal6theory5arith6linear18ArithStaticLearner10StatisticsC2ERNS0_18StatisticsRegistryE(ptr noundef nonnull align 8 dereferenceable(16) %28, ptr noundef nonnull align 8 dereferenceable(58) %26)
          to label %29 unwind label %34

29:                                               ; preds = %27
  ret void

30:                                               ; preds = %6, %2
  %31 = landingpad { ptr, i32 }
          cleanup
  br label %37

32:                                               ; preds = %17, %7
  %33 = landingpad { ptr, i32 }
          cleanup
  br label %36

34:                                               ; preds = %27, %18
  %35 = landingpad { ptr, i32 }
          cleanup
  tail call void @_ZN4cvc57context9CDHashMapINS_8internal12NodeTemplateILb1EEENS2_13DeltaRationalESt4hashIS4_EED2Ev(ptr noundef nonnull align 8 dereferenceable(112) %15) #24
  br label %36

36:                                               ; preds = %34, %32
  %.pn = phi { ptr, i32 } [ %35, %34 ], [ %33, %32 ]
  tail call void @_ZN4cvc57context9CDHashMapINS_8internal12NodeTemplateILb1EEENS2_13DeltaRationalESt4hashIS4_EED2Ev(ptr noundef nonnull align 8 dereferenceable(112) %4) #24
  br label %37

37:                                               ; preds = %36, %30
  %.pn.pn = phi { ptr, i32 } [ %.pn, %36 ], [ %31, %30 ]
  tail call void @_ZN4cvc58internal14ProofGeneratorD2Ev(ptr noundef nonnull align 8 dereferenceable(8) %3) #24
  resume { ptr, i32 } %.pn.pn
}